target datalayout = "e-m:e-p270:32:32-p271:32:32-p272:64:64-i64:64-i128:128-f80:128-n8:16:32:64-S128"
target triple = "x86_64-pc-linux-gnu"

%struct.SDL_FPoint = type { float, float }
%struct.SDL_FColor = type { float, float, float, float }
%struct.SDL_RenderCommand = type { i32, %union.anon, ptr }
%union.anon = type { %struct.anon.5 }
%struct.anon.5 = type { i64, i64, float, %struct.SDL_FColor, i32, ptr, i32, i32, i32, ptr }

; Function Attrs: nounwind uwtable
define internal zeroext i1 @GPU_QueueDrawPoints(ptr noundef %0, ptr noundef %1, ptr noundef %2, i32 noundef %3) #0 {
  %5 = alloca i1, align 1
  %6 = alloca ptr, align 8
  %7 = alloca ptr, align 8
  %8 = alloca ptr, align 8
  %9 = alloca i32, align 4
  %10 = alloca ptr, align 8
  %11 = alloca i32, align 4
  %12 = alloca i32, align 4
  store ptr %0, ptr %6, align 8
  store ptr %1, ptr %7, align 8
  store ptr %2, ptr %8, align 8
  store i32 %3, ptr %9, align 4
  call void @llvm.lifetime.start.p0(i64 8, ptr %10) #10
  %13 = load ptr, ptr %6, align 8
  %14 = load i32, ptr %9, align 4
  %15 = mul nsw i32 %14, 2
  %16 = sext i32 %15 to i64
  %17 = mul i64 %16, 4
  %18 = load ptr, ptr %7, align 8
  %19 = getelementptr inbounds nuw %struct.SDL_RenderCommand, ptr %18, i32 0, i32 1
  %20 = getelementptr inbounds nuw %struct.anon.5, ptr %19, i32 0, i32 0
  %21 = call ptr @SDL_AllocateRenderVertices(ptr noundef %13, i64 noundef %17, i64 noundef 0, ptr noundef %20)
  store ptr %21, ptr %10, align 8
  %22 = load ptr, ptr %10, align 8
  %23 = icmp ne ptr %22, null
  br i1 %23, label %25, label %24

24:                                               ; preds = %4
  store i1 false, ptr %5, align 1
  store i32 1, ptr %11, align 4
  br label %59

25:                                               ; preds = %4
  %26 = load i32, ptr %9, align 4
  %27 = sext i32 %26 to i64
  %28 = load ptr, ptr %7, align 8
  %29 = getelementptr inbounds nuw %struct.SDL_RenderCommand, ptr %28, i32 0, i32 1
  %30 = getelementptr inbounds nuw %struct.anon.5, ptr %29, i32 0, i32 1
  store i64 %27, ptr %30, align 8
  call void @llvm.lifetime.start.p0(i64 4, ptr %12) #10
  store i32 0, ptr %12, align 4
  br label %31

31:                                               ; preds = %55, %25
  %32 = load i32, ptr %12, align 4
  %33 = load i32, ptr %9, align 4
  %34 = icmp slt i32 %32, %33
  br i1 %34, label %36, label %35

35:                                               ; preds = %31
  store i32 2, ptr %11, align 4
  call void @llvm.lifetime.end.p0(i64 4, ptr %12) #10
  br label %58

36:                                               ; preds = %31
  %37 = load ptr, ptr %8, align 8
  %38 = load i32, ptr %12, align 4
  %39 = sext i32 %38 to i64
  %40 = getelementptr inbounds %struct.SDL_FPoint, ptr %37, i64 %39
  %41 = getelementptr inbounds nuw %struct.SDL_FPoint, ptr %40, i32 0, i32 0
  %42 = load float, ptr %41, align 4
  %43 = fadd float 5.000000e-01, %42
  %44 = load ptr, ptr %10, align 8
  %45 = getelementptr inbounds nuw float, ptr %44, i32 1
  store ptr %45, ptr %10, align 8
  store float %43, ptr %44, align 4
  %46 = load ptr, ptr %8, align 8
  %47 = load i32, ptr %12, align 4
  %48 = sext i32 %47 to i64
  %49 = getelementptr inbounds %struct.SDL_FPoint, ptr %46, i64 %48
  %50 = getelementptr inbounds nuw %struct.SDL_FPoint, ptr %49, i32 0, i32 1
  %51 = load float, ptr %50, align 4
  %52 = fadd float 5.000000e-01, %51
  %53 = load ptr, ptr %10, align 8
  %54 = getelementptr inbounds nuw float, ptr %53, i32 1
  store ptr %54, ptr %10, align 8
  store float %52, ptr %53, align 4
  br label %55

55:                                               ; preds = %36
  %56 = load i32, ptr %12, align 4
  %57 = add nsw i32 %56, 1
  store i32 %57, ptr %12, align 4
  br label %31, !llvm.loop !7

58:                                               ; preds = %35
  store i1 true, ptr %5, align 1
  store i32 1, ptr %11, align 4
  br label %59

59:                                               ; preds = %58, %24
  call void @llvm.lifetime.end.p0(i64 8, ptr %10) #10
  %60 = load i1, ptr %5, align 1
  ret i1 %60
}