; Function Attrs: nounwind uwtable
define internal noundef zeroext i1 @GPU_QueueDrawPoints(ptr noundef %0, ptr noundef %1, ptr noundef readonly captures(none) %2, i32 noundef %3) #0 {
  %5 = shl nsw i32 %3, 1
  %6 = sext i32 %5 to i64
  %7 = shl nsw i64 %6, 2
  %8 = getelementptr inbounds nuw i8, ptr %1, i64 8
  %9 = tail call ptr @SDL_AllocateRenderVertices(ptr noundef %0, i64 noundef %7, i64 noundef 0, ptr noundef nonnull %8) #11
  %.not = icmp ne ptr %9, null
  br i1 %.not, label %10, label %.loopexit

10:                                               ; preds = %4
  %11 = sext i32 %3 to i64
  %12 = getelementptr inbounds nuw i8, ptr %1, i64 16
  store i64 %11, ptr %12, align 8
  %13 = icmp sgt i32 %3, 0
  br i1 %13, label %.lr.ph.preheader, label %.loopexit

.lr.ph.preheader:                                 ; preds = %10
  %wide.trip.count = zext nneg i32 %3 to i64
  br label %.lr.ph

.lr.ph:                                           ; preds = %.lr.ph.preheader, %.lr.ph
  %indvars.iv = phi i64 [ 0, %.lr.ph.preheader ], [ %indvars.iv.next, %.lr.ph ]
  %.01518 = phi ptr [ %9, %.lr.ph.preheader ], [ %21, %.lr.ph ]
  %14 = getelementptr inbounds nuw %struct.SDL_FPoint, ptr %2, i64 %indvars.iv
  %15 = load float, ptr %14, align 4
  %16 = fadd float %15, 5.000000e-01
  %17 = getelementptr inbounds nuw i8, ptr %.01518, i64 4
  store float %16, ptr %.01518, align 4
  %18 = getelementptr inbounds nuw i8, ptr %14, i64 4
  %19 = load float, ptr %18, align 4
  %20 = fadd float %19, 5.000000e-01
  %21 = getelementptr inbounds nuw i8, ptr %.01518, i64 8
  store float %20, ptr %17, align 4
  %indvars.iv.next = add nuw nsw i64 %indvars.iv, 1
  %exitcond.not = icmp eq i64 %indvars.iv.next, %wide.trip.count
  br i1 %exitcond.not, label %.loopexit, label %.lr.ph, !llvm.loop !5

.loopexit:                                        ; preds = %.lr.ph, %10, %4
  ret i1 %.not
}